target datalayout = "e-m:e-p270:32:32-p271:32:32-p272:64:64-i64:64-i128:128-f80:128-n8:16:32:64-S128"
target triple = "x86_64-pc-linux-gnu"

; Function Attrs: mustprogress nounwind uwtable
define internal noundef i64 @_ZN32pxrInternal_v0_24__pxrReserved__12_GLOBAL__N_121_GetEncodedBufferSizeIiEEmm(i64 noundef %0) #2 {
  %2 = alloca i64, align 8
  store i64 %0, ptr %2, align 8
  %3 = load i64, ptr %2, align 8
  %4 = icmp ne i64 %3, 0
  br i1 %4, label %5, label %14

5:                                                ; preds = %1
  %6 = load i64, ptr %2, align 8
  %7 = mul i64 %6, 2
  %8 = add i64 %7, 7
  %9 = udiv i64 %8, 8
  %10 = add i64 4, %9
  %11 = load i64, ptr %2, align 8
  %12 = mul i64 %11, 4
  %13 = add i64 %10, %12
  br label %15

14:                                               ; preds = %1
  br label %15

15:                                               ; preds = %14, %5
  %16 = phi i64 [ %13, %5 ], [ 0, %14 ]
  ret i64 %16
}

; Function Attrs: mustprogress uwtable
define noundef i64 @_ZN32pxrInternal_v0_24__pxrReserved__22Usd_IntegerCompression23GetCompressedBufferSizeEm(i64 noundef %0) #0 align 2 {
  %2 = alloca i64, align 8
  store i64 %0, ptr %2, align 8
  %3 = load i64, ptr %2, align 8
  %4 = call noundef i64 @_ZN32pxrInternal_v0_24__pxrReserved__12_GLOBAL__N_121_GetEncodedBufferSizeIiEEmm(i64 noundef %3)
  %5 = call noundef i64 @_ZN32pxrInternal_v0_24__pxrReserved__17TfFastCompression23GetCompressedBufferSizeEm(i64 noundef %4)
  ret i64 %5
}